target datalayout = "e-m:e-p270:32:32-p271:32:32-p272:64:64-i64:64-i128:128-f80:128-n8:16:32:64-S128"
target triple = "x86_64-pc-linux-gnu"

%struct.ChunkInfo = type { i32, i32, i32 }
%struct.WebPData = type { ptr, i64 }
%struct.WebPMuxFrameInfo = type { %struct.WebPData, i32, i32, i32, i32, i32, i32, [1 x i32] }

@kChunks = external constant [11 x %struct.ChunkInfo], align 16

; Function Attrs: inlinehint nounwind uwtable
define internal void @PutLE16(ptr noundef %0, i32 noundef %1) #4 {
  %3 = alloca ptr, align 8
  %4 = alloca i32, align 4
  store ptr %0, ptr %3, align 8, !tbaa !15
  store i32 %1, ptr %4, align 4, !tbaa !3
  %5 = load i32, ptr %4, align 4, !tbaa !3
  %6 = ashr i32 %5, 0
  %7 = and i32 %6, 255
  %8 = trunc i32 %7 to i8
  %9 = load ptr, ptr %3, align 8, !tbaa !15
  %10 = getelementptr inbounds i8, ptr %9, i64 0
  store i8 %8, ptr %10, align 1, !tbaa !43
  %11 = load i32, ptr %4, align 4, !tbaa !3
  %12 = ashr i32 %11, 8
  %13 = and i32 %12, 255
  %14 = trunc i32 %13 to i8
  %15 = load ptr, ptr %3, align 8, !tbaa !15
  %16 = getelementptr inbounds i8, ptr %15, i64 1
  store i8 %14, ptr %16, align 1, !tbaa !43
  ret void
}

; Function Attrs: inlinehint nounwind uwtable
define internal void @PutLE24(ptr noundef %0, i32 noundef %1) #4 {
  %3 = alloca ptr, align 8
  %4 = alloca i32, align 4
  store ptr %0, ptr %3, align 8, !tbaa !15
  store i32 %1, ptr %4, align 4, !tbaa !3
  %5 = load ptr, ptr %3, align 8, !tbaa !15
  %6 = load i32, ptr %4, align 4, !tbaa !3
  %7 = and i32 %6, 65535
  call void @PutLE16(ptr noundef %5, i32 noundef %7)
  %8 = load i32, ptr %4, align 4, !tbaa !3
  %9 = ashr i32 %8, 16
  %10 = and i32 %9, 255
  %11 = trunc i32 %10 to i8
  %12 = load ptr, ptr %3, align 8, !tbaa !15
  %13 = getelementptr inbounds i8, ptr %12, i64 2
  store i8 %11, ptr %13, align 1, !tbaa !43
  ret void
}

; Function Attrs: nounwind uwtable
define internal i32 @CreateFrameData(i32 noundef %0, i32 noundef %1, ptr noundef %2, ptr noundef %3) #0 {
  %5 = alloca i32, align 4
  %6 = alloca i32, align 4
  %7 = alloca i32, align 4
  %8 = alloca ptr, align 8
  %9 = alloca ptr, align 8
  %10 = alloca ptr, align 8
  %11 = alloca i64, align 8
  %12 = alloca i32, align 4
  store i32 %0, ptr %6, align 4, !tbaa !3
  store i32 %1, ptr %7, align 4, !tbaa !3
  store ptr %2, ptr %8, align 8, !tbaa !31
  store ptr %3, ptr %9, align 8, !tbaa !17
  call void @llvm.lifetime.start.p0(i64 8, ptr %10) #7
  call void @llvm.lifetime.start.p0(i64 8, ptr %11) #7
  %13 = load i32, ptr getelementptr inbounds nuw (%struct.ChunkInfo, ptr getelementptr inbounds ([11 x %struct.ChunkInfo], ptr @kChunks, i64 0, i64 3), i32 0, i32 2), align 4, !tbaa !50
  %14 = zext i32 %13 to i64
  store i64 %14, ptr %11, align 8, !tbaa !42
  %15 = load i64, ptr %11, align 8, !tbaa !42
  %16 = call ptr @WebPSafeMalloc(i64 noundef 1, i64 noundef %15)
  store ptr %16, ptr %10, align 8, !tbaa !15
  %17 = load ptr, ptr %10, align 8, !tbaa !15
  %18 = icmp eq ptr %17, null
  br i1 %18, label %19, label %20

19:                                               ; preds = %4
  store i32 -3, ptr %5, align 4
  store i32 1, ptr %12, align 4
  br label %66

20:                                               ; preds = %4
  %21 = load ptr, ptr %10, align 8, !tbaa !15
  %22 = getelementptr inbounds i8, ptr %21, i64 0
  %23 = load ptr, ptr %8, align 8, !tbaa !31
  %24 = getelementptr inbounds nuw %struct.WebPMuxFrameInfo, ptr %23, i32 0, i32 1
  %25 = load i32, ptr %24, align 8, !tbaa !44
  %26 = sdiv i32 %25, 2
  call void @PutLE24(ptr noundef %22, i32 noundef %26)
  %27 = load ptr, ptr %10, align 8, !tbaa !15
  %28 = getelementptr inbounds i8, ptr %27, i64 3
  %29 = load ptr, ptr %8, align 8, !tbaa !31
  %30 = getelementptr inbounds nuw %struct.WebPMuxFrameInfo, ptr %29, i32 0, i32 2
  %31 = load i32, ptr %30, align 4, !tbaa !45
  %32 = sdiv i32 %31, 2
  call void @PutLE24(ptr noundef %28, i32 noundef %32)
  %33 = load ptr, ptr %10, align 8, !tbaa !15
  %34 = getelementptr inbounds i8, ptr %33, i64 6
  %35 = load i32, ptr %6, align 4, !tbaa !3
  %36 = sub nsw i32 %35, 1
  call void @PutLE24(ptr noundef %34, i32 noundef %36)
  %37 = load ptr, ptr %10, align 8, !tbaa !15
  %38 = getelementptr inbounds i8, ptr %37, i64 9
  %39 = load i32, ptr %7, align 4, !tbaa !3
  %40 = sub nsw i32 %39, 1
  call void @PutLE24(ptr noundef %38, i32 noundef %40)
  %41 = load ptr, ptr %10, align 8, !tbaa !15
  %42 = getelementptr inbounds i8, ptr %41, i64 12
  %43 = load ptr, ptr %8, align 8, !tbaa !31
  %44 = getelementptr inbounds nuw %struct.WebPMuxFrameInfo, ptr %43, i32 0, i32 3
  %45 = load i32, ptr %44, align 8, !tbaa !46
  call void @PutLE24(ptr noundef %42, i32 noundef %45)
  %46 = load ptr, ptr %8, align 8, !tbaa !31
  %47 = getelementptr inbounds nuw %struct.WebPMuxFrameInfo, ptr %46, i32 0, i32 6
  %48 = load i32, ptr %47, align 4, !tbaa !51
  %49 = icmp eq i32 %48, 1
  %50 = select i1 %49, i32 2, i32 0
  %51 = load ptr, ptr %8, align 8, !tbaa !31
  %52 = getelementptr inbounds nuw %struct.WebPMuxFrameInfo, ptr %51, i32 0, i32 5
  %53 = load i32, ptr %52, align 8, !tbaa !47
  %54 = icmp eq i32 %53, 1
  %55 = select i1 %54, i32 1, i32 0
  %56 = or i32 %50, %55
  %57 = trunc i32 %56 to i8
  %58 = load ptr, ptr %10, align 8, !tbaa !15
  %59 = getelementptr inbounds i8, ptr %58, i64 15
  store i8 %57, ptr %59, align 1, !tbaa !43
  %60 = load ptr, ptr %10, align 8, !tbaa !15
  %61 = load ptr, ptr %9, align 8, !tbaa !17
  %62 = getelementptr inbounds nuw %struct.WebPData, ptr %61, i32 0, i32 0
  store ptr %60, ptr %62, align 8, !tbaa !19
  %63 = load i64, ptr %11, align 8, !tbaa !42
  %64 = load ptr, ptr %9, align 8, !tbaa !17
  %65 = getelementptr inbounds nuw %struct.WebPData, ptr %64, i32 0, i32 1
  store i64 %63, ptr %65, align 8, !tbaa !22
  store i32 1, ptr %5, align 4
  store i32 1, ptr %12, align 4
  br label %66

66:                                               ; preds = %20, %19
  call void @llvm.lifetime.end.p0(i64 8, ptr %11) #7
  call void @llvm.lifetime.end.p0(i64 8, ptr %10) #7
  %67 = load i32, ptr %5, align 4
  ret i32 %67
}