; Function Attrs: nounwind uwtable
define internal fastcc range(i32 -3, 2) i32 @CreateFrameData(i32 noundef %0, i32 noundef %1, ptr noundef nonnull readonly captures(none) %2, ptr noundef nonnull writeonly captures(none) %3) unnamed_addr #0 {
  %5 = load i32, ptr getelementptr inbounds nuw (i8, ptr @kChunks, i64 44), align 4, !tbaa !43
  %6 = zext i32 %5 to i64
  %7 = tail call ptr @WebPSafeMalloc(i64 noundef 1, i64 noundef %6) #7
  %8 = icmp eq ptr %7, null
  br i1 %8, label %70, label %9

9:                                                ; preds = %4
  %10 = getelementptr inbounds nuw i8, ptr %2, i64 16
  %11 = load i32, ptr %10, align 8, !tbaa !39
  %12 = sdiv i32 %11, 2
  %13 = trunc i32 %12 to i8
  store i8 %13, ptr %7, align 1, !tbaa !38
  %14 = lshr i32 %12, 8
  %15 = trunc i32 %14 to i8
  %16 = getelementptr inbounds nuw i8, ptr %7, i64 1
  store i8 %15, ptr %16, align 1, !tbaa !38
  %17 = lshr i32 %12, 16
  %18 = trunc i32 %17 to i8
  %19 = getelementptr inbounds nuw i8, ptr %7, i64 2
  store i8 %18, ptr %19, align 1, !tbaa !38
  %20 = getelementptr inbounds nuw i8, ptr %7, i64 3
  %21 = getelementptr inbounds nuw i8, ptr %2, i64 20
  %22 = load i32, ptr %21, align 4, !tbaa !40
  %23 = sdiv i32 %22, 2
  %24 = trunc i32 %23 to i8
  store i8 %24, ptr %20, align 1, !tbaa !38
  %25 = lshr i32 %23, 8
  %26 = trunc i32 %25 to i8
  %27 = getelementptr inbounds nuw i8, ptr %7, i64 4
  store i8 %26, ptr %27, align 1, !tbaa !38
  %28 = lshr i32 %23, 16
  %29 = trunc i32 %28 to i8
  %30 = getelementptr inbounds nuw i8, ptr %7, i64 5
  store i8 %29, ptr %30, align 1, !tbaa !38
  %31 = getelementptr inbounds nuw i8, ptr %7, i64 6
  %32 = add nsw i32 %0, -1
  %33 = trunc i32 %32 to i8
  store i8 %33, ptr %31, align 1, !tbaa !38
  %34 = lshr i32 %32, 8
  %35 = trunc i32 %34 to i8
  %36 = getelementptr inbounds nuw i8, ptr %7, i64 7
  store i8 %35, ptr %36, align 1, !tbaa !38
  %37 = lshr i32 %32, 16
  %38 = trunc i32 %37 to i8
  %39 = getelementptr inbounds nuw i8, ptr %7, i64 8
  store i8 %38, ptr %39, align 1, !tbaa !38
  %40 = getelementptr inbounds nuw i8, ptr %7, i64 9
  %41 = add nsw i32 %1, -1
  %42 = trunc i32 %41 to i8
  store i8 %42, ptr %40, align 1, !tbaa !38
  %43 = lshr i32 %41, 8
  %44 = trunc i32 %43 to i8
  %45 = getelementptr inbounds nuw i8, ptr %7, i64 10
  store i8 %44, ptr %45, align 1, !tbaa !38
  %46 = lshr i32 %41, 16
  %47 = trunc i32 %46 to i8
  %48 = getelementptr inbounds nuw i8, ptr %7, i64 11
  store i8 %47, ptr %48, align 1, !tbaa !38
  %49 = getelementptr inbounds nuw i8, ptr %7, i64 12
  %50 = getelementptr inbounds nuw i8, ptr %2, i64 24
  %51 = load i32, ptr %50, align 8, !tbaa !44
  %52 = trunc i32 %51 to i8
  store i8 %52, ptr %49, align 1, !tbaa !38
  %53 = lshr i32 %51, 8
  %54 = trunc i32 %53 to i8
  %55 = getelementptr inbounds nuw i8, ptr %7, i64 13
  store i8 %54, ptr %55, align 1, !tbaa !38
  %56 = lshr i32 %51, 16
  %57 = trunc i32 %56 to i8
  %58 = getelementptr inbounds nuw i8, ptr %7, i64 14
  store i8 %57, ptr %58, align 1, !tbaa !38
  %59 = getelementptr inbounds nuw i8, ptr %2, i64 36
  %60 = load i32, ptr %59, align 4, !tbaa !45
  %61 = icmp eq i32 %60, 1
  %62 = select i1 %61, i8 2, i8 0
  %63 = getelementptr inbounds nuw i8, ptr %2, i64 32
  %64 = load i32, ptr %63, align 8, !tbaa !46
  %65 = icmp eq i32 %64, 1
  %66 = zext i1 %65 to i8
  %67 = or disjoint i8 %62, %66
  %68 = getelementptr inbounds nuw i8, ptr %7, i64 15
  store i8 %67, ptr %68, align 1, !tbaa !38
  store ptr %7, ptr %3, align 8, !tbaa !10
  %69 = getelementptr inbounds nuw i8, ptr %3, i64 8
  store i64 %6, ptr %69, align 8, !tbaa !14
  br label %70

70:                                               ; preds = %4, %9
  %.0 = phi i32 [ 1, %9 ], [ -3, %4 ]
  ret i32 %.0
}